(lp0
(S'Jiawei Han'
p1
S'Wei Wang'
p2
tp3
a(VJiawei Han
p4
VJian Pei
p5
tp6
a(VJimeng Sun
p7
VChristos Faloutsos
p8
tp9
a(VJiawei Han
p10
VHong Cheng
p11
tp12
a(VJian Pei
p13
VJiawei Han
p14
tp15
a(VHong Cheng
p16
VJiawei Han
p17
tp18
a(VDan Roth
p19
VXin Li
p20
tp21
a(VWei Wang
p22
VJian Pei
p23
tp24
a(VMichael I. Jordan
p25
VThomas Hofmann
p26
tp27
a(VJian Pei
p28
VWei Wang
p29
tp30
a(VChristos Faloutsos
p31
VJimeng Sun
p32
tp33
a(S'Wei Wang'
p34
S'Jiawei Han'
p35
tp36
a(VThomas Hofmann
p37
VMichael I. Jordan
p38
tp39
a(VXin Li
p40
VDan Roth
p41
tp42
a.