c__builtin__
set
p0
((lp1
S'Jin Li'
p2
aS'Xin Li'
p3
aS'Hong Cheng'
p4
aS'Jian Pei'
p5
aS'Wei Wang'
p6
aS'Dan Roth'
p7
aS'Michael I. Jordan'
p8
aS'Christos Faloutsos'
p9
aS'Jimeng Sun'
p10
aS'Jiawei Han'
p11
aS'Thomas Hofmann'
p12
atp13
Rp14
.