c__builtin__
set
p0
((lp1
S'Jin Li'
p2
aS'Gert R. G. Lanckriet'
p3
aS'Wei Wang'
p4
aS'Zoubin Ghahramani'
p5
aS'Lawrence K. Saul'
p6
aS'Jure Leskovec'
p7
aS'Dan Roth'
p8
aS'Michael I. Jordan'
p9
aS'Lei Xu'
p10
aS'Ming-Hsuan Yang'
p11
aS'David M. Blei'
p12
aS'Jiawei Han'
p13
atp14
Rp15
.